target datalayout = "e-m:e-p270:32:32-p271:32:32-p272:64:64-i64:64-i128:128-f80:128-n8:16:32:64-S128"
target triple = "x86_64-pc-linux-gnu"

@.str = private unnamed_addr constant [6 x i8] c"1.5.6\00", align 1

; Function Attrs: mustprogress nounwind uwtable
define noundef i32 @_ZN11duckdb_zstd18ZSTD_versionNumberEv() #0 {
  ret i32 10506
}

; Function Attrs: mustprogress nounwind uwtable
define noundef ptr @_ZN11duckdb_zstd18ZSTD_versionStringEv() #0 {
  ret ptr @.str
}

; Function Attrs: mustprogress uwtable
define noundef i32 @_ZN11duckdb_zstd12ZSTD_isErrorEm(i64 noundef %0) #1 {
  %2 = alloca i64, align 8
  store i64 %0, ptr %2, align 8, !tbaa !3
  %3 = load i64, ptr %2, align 8, !tbaa !3
  %4 = call noundef i32 @_ZN11duckdb_zstdL11ERR_isErrorEm(i64 noundef %3)
  ret i32 %4
}

; Function Attrs: mustprogress nounwind uwtable
define internal noundef i32 @_ZN11duckdb_zstdL11ERR_isErrorEm(i64 noundef %0) #0 {
  %2 = alloca i64, align 8
  store i64 %0, ptr %2, align 8, !tbaa !3
  %3 = load i64, ptr %2, align 8, !tbaa !3
  %4 = icmp ugt i64 %3, -120
  %5 = zext i1 %4 to i32
  ret i32 %5
}

; Function Attrs: mustprogress uwtable
define noundef ptr @_ZN11duckdb_zstd17ZSTD_getErrorNameEm(i64 noundef %0) #1 {
  %2 = alloca i64, align 8
  store i64 %0, ptr %2, align 8, !tbaa !3
  %3 = load i64, ptr %2, align 8, !tbaa !3
  %4 = call noundef ptr @_ZN11duckdb_zstdL16ERR_getErrorNameEm(i64 noundef %3)
  ret ptr %4
}

; Function Attrs: mustprogress uwtable
define internal noundef ptr @_ZN11duckdb_zstdL16ERR_getErrorNameEm(i64 noundef %0) #1 {
  %2 = alloca i64, align 8
  store i64 %0, ptr %2, align 8, !tbaa !3
  %3 = load i64, ptr %2, align 8, !tbaa !3
  %4 = call noundef i32 @_ZN11duckdb_zstdL16ERR_getErrorCodeEm(i64 noundef %3)
  %5 = call noundef ptr @_ZN11duckdb_zstd18ERR_getErrorStringENS_14ZSTD_ErrorCodeE(i32 noundef %4)
  ret ptr %5
}

; Function Attrs: mustprogress uwtable
define noundef i32 @_ZN11duckdb_zstd17ZSTD_getErrorCodeEm(i64 noundef %0) #1 {
  %2 = alloca i64, align 8
  store i64 %0, ptr %2, align 8, !tbaa !3
  %3 = load i64, ptr %2, align 8, !tbaa !3
  %4 = call noundef i32 @_ZN11duckdb_zstdL16ERR_getErrorCodeEm(i64 noundef %3)
  ret i32 %4
}

; Function Attrs: mustprogress nounwind uwtable
define internal noundef i32 @_ZN11duckdb_zstdL16ERR_getErrorCodeEm(i64 noundef %0) #0 {
  %2 = alloca i32, align 4
  %3 = alloca i64, align 8
  store i64 %0, ptr %3, align 8, !tbaa !3
  %4 = load i64, ptr %3, align 8, !tbaa !3
  %5 = call noundef i32 @_ZN11duckdb_zstdL11ERR_isErrorEm(i64 noundef %4)
  %6 = icmp ne i32 %5, 0
  br i1 %6, label %8, label %7

7:                                                ; preds = %1
  store i32 0, ptr %2, align 4
  br label %12

8:                                                ; preds = %1
  %9 = load i64, ptr %3, align 8, !tbaa !3
  %10 = sub i64 0, %9
  %11 = trunc i64 %10 to i32
  store i32 %11, ptr %2, align 4
  br label %12

12:                                               ; preds = %8, %7
  %13 = load i32, ptr %2, align 4
  ret i32 %13
}

; Function Attrs: mustprogress uwtable
define noundef ptr @_ZN11duckdb_zstd19ZSTD_getErrorStringENS_14ZSTD_ErrorCodeE(i32 noundef %0) #1 {
  %2 = alloca i32, align 4
  store i32 %0, ptr %2, align 4, !tbaa !7
  %3 = load i32, ptr %2, align 4, !tbaa !7
  %4 = call noundef ptr @_ZN11duckdb_zstd18ERR_getErrorStringENS_14ZSTD_ErrorCodeE(i32 noundef %3)
  ret ptr %4
}

declare noundef ptr @_ZN11duckdb_zstd18ERR_getErrorStringENS_14ZSTD_ErrorCodeE(i32 noundef) #2


!llvm.module.flags = !{!0, !1, !2}

!0 = !{i32 1, !"wchar_size", i32 4}
!1 = !{i32 8, !"PIC Level", i32 2}
!2 = !{i32 7, !"uwtable", i32 2}
!3 = !{!4, !4, i64 0}
!4 = !{!"long", !5, i64 0}
!5 = !{!"omnipotent char", !6, i64 0}
!6 = !{!"Simple C++ TBAA"}
!7 = !{!8, !8, i64 0}
!8 = !{!"_ZTSN11duckdb_zstd14ZSTD_ErrorCodeE", !5, i64 0}
